target datalayout = "e-m:e-p270:32:32-p271:32:32-p272:64:64-i64:64-i128:128-f80:128-n8:16:32:64-S128"
target triple = "x86_64-pc-linux-gnu"

%"class.clang::CodeGen::RValue" = type <{ %union.anon.438, i8, [7 x i8] }>
%union.anon.438 = type { %"class.clang::CodeGen::Address" }
%"class.clang::CodeGen::Address" = type { %"class.llvm::PointerIntPair.439", ptr, %"class.clang::CharUnits", %"class.clang::CodeGen::CGPointerAuthInfo", ptr }
%"class.llvm::PointerIntPair.439" = type { %"struct.llvm::detail::PunnedPointer.440" }
%"struct.llvm::detail::PunnedPointer.440" = type { [8 x i8] }
%"class.clang::CharUnits" = type { i64 }
%"class.clang::CodeGen::CGPointerAuthInfo" = type { i8, ptr }
%"class.clang::CodeGen::AggValueSlot" = type <{ %"class.clang::CodeGen::Address", %"class.clang::Qualifiers", i8, [7 x i8] }>
%"class.clang::Qualifiers" = type { i64 }
%"class.clang::QualType" = type { %"class.llvm::PointerIntPair" }
%"class.llvm::PointerIntPair" = type { %"struct.llvm::detail::PunnedPointer" }
%"struct.llvm::detail::PunnedPointer" = type { [8 x i8] }
%struct.anon = type { ptr, ptr }

; Function Attrs: mustprogress nounwind uwtable
define linkonce_odr hidden void @_ZN5clang7CodeGen6RValueC2Ev(ptr noundef nonnull align 8 dereferenceable(49) %0) unnamed_addr #0 comdat align 2 {
  %2 = alloca ptr, align 8
  store ptr %0, ptr %2, align 8
  %3 = load ptr, ptr %2, align 8
  %4 = getelementptr inbounds nuw %"class.clang::CodeGen::RValue", ptr %3, i32 0, i32 0
  %5 = getelementptr inbounds nuw %struct.anon, ptr %4, i32 0, i32 0
  store ptr null, ptr %5, align 8
  %6 = getelementptr inbounds nuw %struct.anon, ptr %4, i32 0, i32 1
  store ptr null, ptr %6, align 8
  %7 = getelementptr inbounds nuw %"class.clang::CodeGen::RValue", ptr %3, i32 0, i32 1
  %8 = load i8, ptr %7, align 8
  %9 = and i8 %8, -7
  %10 = or i8 %9, 0
  store i8 %10, ptr %7, align 8
  ret void
}

; Function Attrs: mustprogress nounwind uwtable
define linkonce_odr hidden void @_ZN5clang7CodeGen6RValue3getEPN4llvm5ValueE(ptr dead_on_unwind noalias writable sret(%"class.clang::CodeGen::RValue") align 8 %0, ptr noundef %1) #0 comdat align 2 {
  %3 = alloca ptr, align 8
  store ptr %1, ptr %3, align 8
  call void @_ZN5clang7CodeGen6RValueC2Ev(ptr noundef nonnull align 8 dereferenceable(49) %0)
  %4 = load ptr, ptr %3, align 8
  %5 = getelementptr inbounds nuw %"class.clang::CodeGen::RValue", ptr %0, i32 0, i32 0
  %6 = getelementptr inbounds nuw %struct.anon, ptr %5, i32 0, i32 0
  store ptr %4, ptr %6, align 8
  %7 = getelementptr inbounds nuw %"class.clang::CodeGen::RValue", ptr %0, i32 0, i32 1
  %8 = load i8, ptr %7, align 8
  %9 = and i8 %8, -7
  %10 = or i8 %9, 0
  store i8 %10, ptr %7, align 8
  %11 = getelementptr inbounds nuw %"class.clang::CodeGen::RValue", ptr %0, i32 0, i32 1
  %12 = load i8, ptr %11, align 8
  %13 = and i8 %12, -2
  %14 = or i8 %13, 0
  store i8 %14, ptr %11, align 8
  ret void
}

; Function Attrs: mustprogress nounwind uwtable
define linkonce_odr hidden void @_ZN5clang7CodeGen6RValue10getIgnoredEv(ptr dead_on_unwind noalias writable sret(%"class.clang::CodeGen::RValue") align 8 %0) #0 comdat align 2 {
  call void @_ZN5clang7CodeGen6RValue3getEPN4llvm5ValueE(ptr dead_on_unwind writable sret(%"class.clang::CodeGen::RValue") align 8 %0, ptr noundef null)
  ret void
}

; Function Attrs: mustprogress nounwind uwtable
define dso_local void @_ZNK5clang7CodeGen7ABIInfo11EmitMSVAArgERNS0_15CodeGenFunctionENS0_7AddressENS_8QualTypeENS0_12AggValueSlotE(ptr dead_on_unwind noalias writable sret(%"class.clang::CodeGen::RValue") align 8 %0, ptr noundef nonnull align 8 dereferenceable(20) %1, ptr noundef nonnull align 8 dereferenceable(6488) %2, ptr noundef byval(%"class.clang::CodeGen::Address") align 8 %3, i64 %4, ptr noundef byval(%"class.clang::CodeGen::AggValueSlot") align 8 %5) unnamed_addr #0 align 2 {
  %7 = alloca %"class.clang::QualType", align 8
  %8 = alloca ptr, align 8
  %9 = alloca ptr, align 8
  %10 = getelementptr inbounds nuw %"class.clang::QualType", ptr %7, i32 0, i32 0
  %11 = getelementptr inbounds nuw %"class.llvm::PointerIntPair", ptr %10, i32 0, i32 0
  %12 = getelementptr inbounds nuw %"struct.llvm::detail::PunnedPointer", ptr %11, i32 0, i32 0
  store i64 %4, ptr %12, align 8
  store ptr %1, ptr %8, align 8
  store ptr %2, ptr %9, align 8
  call void @_ZN5clang7CodeGen6RValue10getIgnoredEv(ptr dead_on_unwind writable sret(%"class.clang::CodeGen::RValue") align 8 %0)
  ret void
}