; Function Attrs: mustprogress nofree norecurse nosync nounwind willreturn memory(argmem: readwrite) uwtable
define dso_local void @_ZNK5clang7CodeGen7ABIInfo11EmitMSVAArgERNS0_15CodeGenFunctionENS0_7AddressENS_8QualTypeENS0_12AggValueSlotE(ptr dead_on_unwind noalias nocapture writable sret(%"class.clang::CodeGen::RValue") align 8 %0, ptr nocapture nonnull readnone align 8 %1, ptr nocapture nonnull readnone align 8 %2, ptr nocapture noundef readnone byval(%"class.clang::CodeGen::Address") align 8 %3, i64 %4, ptr nocapture noundef readnone byval(%"class.clang::CodeGen::AggValueSlot") align 8 %5) unnamed_addr #6 align 2 {
  %7 = getelementptr inbounds nuw i8, ptr %0, i64 48
  %8 = getelementptr inbounds i8, ptr %0, i64 8
  store i64 0, ptr %8, align 8, !alias.scope !4
  %9 = load i8, ptr %7, align 8, !alias.scope !4
  store ptr null, ptr %0, align 8, !alias.scope !4
  %10 = and i8 %9, -8
  store i8 %10, ptr %7, align 8, !alias.scope !4
  ret void
}